(lp0
V\u7968\u623f
p1
aV\u53bb\u5e74
p2
aV\u88c5\u5907
p3
aV\u6574\u4f53
p4
aV\u51cc\u6668
p5
aV\u623f\u4ea7
p6
aV\u8ba9\u73a9\u5bb6
p7
aV\u6761\u4ef6
p8
aV\u4ed9\u5251
p9
aV\u53d1\u552e
p10
aV\u7ecf\u9a8c
p11
aV\u7cfb\u5217
p12
aV\u53f7\u7801
p13
aV\u5b8c\u7f8e
p14
aV\u5371\u673a
p15
aV\u7535\u5f71
p16
aV\u64b0\u7a3f
p17
aV\u706b\u7bad
p18
aV\u4e3b\u80dc
p19
aV\u56fd\u5185
p20
aV\u5956\u52b1
p21
aV\u7533\u8bf7\u4eba
p22
aV\u5f81\u7a3f\u542f\u4e8b
p23
aV\u53cc\u5b50\u5ea7
p24
aV\u573a
p25
aV\u5e0c\u671b
p26
aV\u53ef\u7231
p27
aV\u5de8\u87f9
p28
aV\u670d\u52a1
p29
aV\u5e7f\u5dde
p30
aV\u9762\u79ef
p31
aV\u9053\u5177
p32
aV\u54c1\u724c
p33
aV\u6709\u4eba
p34
aV\u4e0b\u8dcc
p35
aV\u51fa\u573a
p36
aV\u5956
p37
aV\u6c99\u53d1
p38
aV\u6b63\u5f0f
p39
aV\u5b98\u65b9\u7f51\u7ad9
p40
aV\u6b27\u5143\u533a
p41
aV\u5956\u91d1
p42
aV\u4e0b\u8c03
p43
aV\u72ee\u5b50\u5ea7
p44
aV\u5e73\u53f0
p45
aV\u5bb6\u91cc
p46
aV\u8eab\u6750
p47
aV\u5e74
p48
aV\u4e3b\u6301\u4eba
p49
aV\u65b0\u6d6a
p50
aV\u8001\u4eba
p51
aV\u6bcd\u4eb2
p52
aV\u88c5\u9970
p53
aV\u7403
p54
aV\u665a\u4e0a
p55
aV\u9996\u53d1
p56
aV\u4fe1\u7528\u5361
p57
aV\u4eab\u53d7
p58
aV\u4ec5\u4f9b
p59
aV\u5916\u5957
p60
aV\u679a
p61
aV\u514d\u8d39
p62
aV\u961f
p63
aV\u4ea4\u6218
p64
aV\u56fd\u5916
p65
aV\u65f6\u88c5
p66
aV\u8d70
p67
aV\u6280\u672f
p68
aV\u623f\u5b50
p69
aV\u4e8c\u624b\u623f
p70
aV\u6700\u65b0
p71
aV\u91d1\u661f
p72
aV\u65af\u79d1\u62c9
p73
aV\u8d27\u5e01
p74
aV\u60c5\u51b5
p75
aV\u58c1\u7eb8
p76
aV\u91d1\u878d
p77
aV\u5229\u7387
p78
aV\u6da8\u5e45
p79
aV\u4e0d\u8d25
p80
aV\u8bf7
p81
aV\u4e0a\u5e02
p82
aV\u8bbf\u95ee
p83
aV\u8001\u5e08
p84
aV\u6d41\u884c
p85
aV\u5151
p86
aV\u52a0\u7d22\u5c14
p87
aV\u98ce\u683c
p88
aV\u5bb6\u5177
p89
aV\u7403\u5931
p90
aV\u53f8\u673a
p91
aV\u535a\u5f69
p92
aV\u5f69\u6c11
p93
aV\u63d0\u4f9b
p94
aV\u6536\u76ca
p95
aV\u5973\u513f
p96
aV\u7236\u6bcd
p97
aV\u95ee
p98
aV\u5927\u7247
p99
aV\u73b0\u573a
p100
aV\u7c73
p101
aV\u8fdd\u7ea6
p102
aV\u4ea7\u54c1
p103
aV\u4e2d\u65b0\u7f51
p104
aV\u6210\u7acb
p105
aV\u56fd\u503a
p106
aV\u4e0d\u9519
p107
aV\u53e4\u5251
p108
aV\u5206\u6790
p109
aV\u5f97\u5206
p110
aV\u59da\u660e
p111
aV\u8b66\u65b9
p112
aV\u5c55\u73b0
p113
aV\u4fdd\u7ea7
p114
aV\u62ff\u5230
p115
aV\u604b\u7231
p116
aV\u53d1\u751f
p117
aV\u4e00\u8f86
p118
aV\u4ef7\u503c
p119
aV\u53cd\u5f39
p120
aV\u7ebf\u6761
p121
aV\u80a1
p122
aV\u8054\u76df
p123
aV\u5ba4\u5185
p124
aV\u72af\u7f6a
p125
aV\u6307\u6570
p126
aV\u626e\u6f14
p127
aV\u673a\u8eab
p128
aV\u80fd\u529b
p129
aV\u7535\u5b50\u7ade\u6280
p130
aV\u7167\u7247
p131
aV\u5c04\u624b\u5ea7
p132
aV\u4e8b\u53d1
p133
aV\u53d1\u5c04
p134
aV\u6b3e\u5f0f
p135
aV\u661f\u5ea7
p136
aV\u6e56\u4eba
p137
aV\u5929\u874e\u5ea7
p138
aV\u4e00\u6b3e
p139
aV\u8fde\u8d25
p140
aV\u9700\u6c42
p141
aV\u767d\u8272
p142
aV\u8fd9\u4e00
p143
aV\u4e2d\u5f0f
p144
aV\u5c31\u4e1a
p145
aV\u5f97\u624b
p146
aV\u5b87\u5b99
p147
aV\u7f8e\u8054\u50a8
p148
aV\u6628\u5929
p149
aV\u8003\u751f
p150
aV\u5f71\u7247
p151
aV\u5947\u624d
p152
aV\u50cf\u7d20
p153
aV\u5ba2\u573a
p154
aV\u5b9e\u65bd
p155
aV\u4f1a\u8bae
p156
aV\u56e2\u961f
p157
aV\u53d1\u5c55
p158
aV\u5bb6\u88c5
p159
aV\u8fd9\u662f
p160
aV\u533b\u9662
p161
aV\u6fb3\u6d32
p162
aV\u5145\u6ee1
p163
aV\u6211\u8981
p164
aV\u5b98\u65b9
p165
aV\u4ebf
p166
aV\u53f7
p167
aV\u5956\u53f7
p168
aV\u6e29\u5bb6\u5b9d
p169
aV\u7f51\u53cb
p170
aV\u94b1
p171
aV\u5355\u54c1
p172
aV\u6b27\u6d32
p173
aV\u4e2d\u5fc3
p174
aV\u4ebf\u5143
p175
aV\u5b66\u8d39
p176
aV\u6267\u5bfc
p177
aV\u9002\u5408
p178
aV\u5206\u6790\u5e08
p179
aV\u5b9e\u529b
p180
aV\u4f18\u96c5
p181
aV\u51fa\u56fd
p182
aV\u7231\u60c5
p183
aV\u672c\u671f
p184
aV\u672a\u6765
p185
aV\u60f3\u8981
p186
aV\u671f
p187
aV\u73bb\u7483
p188
aV\u8fc7\u7a0b
p189
aV\u53f0\u6e7e
p190
aV\u5e73
p191
aV\u610f\u89c1
p192
aV\u5b66\u751f
p193
aV\u7406\u8d22
p194
aV\u4e00\u5bb6
p195
aV\u7537\u5b50
p196
aV\u5185\u5bb9
p197
aV\u5546\u4e1a
p198
aV\u603b\u7406
p199
aV\u63aa\u65bd
p200
aV\u845b\u4f18
p201
aV\u65b0\u534e\u7f51
p202
aV\u62a5\u8b66
p203
aV\u73af\u5883
p204
aV\u4e13\u5bb6
p205
aV\u4f4f
p206
aV\u52a8\u4f5c
p207
aV\u5e73\u624b
p208
aV\u5927\u5b66
p209
aV\u767d\u7f8a\u5ea7
p210
aV\u7f8e\u56fd
p211
aV\u4eba\u7c7b
p212
aV\u7b80\u5355
p213
aV\u8d37\u6b3e
p214
aV\u4e2a\u6027
p215
aV\u5bf9\u624b
p216
aV\u6b27\u8d54
p217
aV\u597d\u83b1\u575e
p218
aV\u57ce\u5e02
p219
aV\u79f0
p220
aV\u5ba2\u6237
p221
aV\u8bc4\u8bba
p222
aV\u6bd4\u4f8b
p223
aV\u6d4b\u8bd5
p224
aV\u536b\u6d74
p225
aV\u5347\u503c
p226
aV\u4e0a\u8863
p227
aV\u5f00\u5956
p228
aV\u7279\u522b
p229
aV\u56fd\u5bb6
p230
aV\u4fe1\u8d37
p231
aV\u81ea\u7136
p232
aV\u5206\u949f
p233
aV\u503a\u5238
p234
aV\u5173\u6ce8
p235
aV\u6c34\u74f6\u5ea7
p236
aV\u7559\u5b66
p237
aV\u611f\u60c5
p238
aV\u91d1\u878d\u5371\u673a
p239
aV\u670d\u88c5
p240
aV\u5305\u62ec
p241
aV\u9762\u4e34
p242
aV\u8d54\u7387
p243
aV\u4e8b\u60c5
p244
aV\u6bd5\u4e1a
p245
aV\u4e1c\u897f
p246
aV\u8be5\u7247
p247
aV\u8db3\u5f69
p248
aV\u9500\u552e
p249
aV\u886c\u886b
p250
aV\u4e0b\u964d
p251
aV\u96c6\u56e2
p252
aV\u6c34
p253
aV\u503c
p254
aV\u63a8\u4ecb
p255
aV\u5173\u7cfb
p256
aV\u80dc\u8d1f\u5f69
p257
aV\u6548\u679c
p258
aV\u9a6c\u4e01
p259
aV\u7528\u5730
p260
aV\u4f4e
p261
aV\u672c\u62a5\u8baf
p262
aV\u63a8\u52a8
p263
aV\u6ce8
p264
aV\u4e3b\u6f14
p265
aV\u62e5\u6709
p266
aV\u89c4\u5212
p267
aV\u9762\u5bf9
p268
aV\u77ed\u88e4
p269
aV\u8863\u670d
p270
aV\u5a92\u4f53
p271
aV\u6b27\u76df
p272
aV\u5f55\u53d6
p273
aV\u89c4\u6a21
p274
aV\u6700\u4f73
p275
aV\u4e0a\u7bee
p276
aV\u8bfe\u7a0b
p277
aV\u5730\u4ea7
p278
aV\u8f68\u9053
p279
aV\u6559\u80b2
p280
aV\u5185\u5730
p281
aV\u4e9a\u6d32
p282
aV\u5e03
p283
aV\u6750\u6599
p284
aV\u5355\u8eab
p285
aV\u65f6\u9ae6
p286
aV\u9ad8\u8003
p287
aV\u7535\u5f71\u8282
p288
aV\u503a\u52a1
p289
aV\u7b11
p290
aV\u753b\u9762
p291
aV\u7530\u56ed
p292
aV\u6295\u6ce8
p293
aV\u6d6a\u6f2b
p294
aV\u5904\u5973\u5ea7
p295
aV\u536b\u661f
p296
aV\u5bb6\u4eba
p297
aV\u6b21
p298
aV\u6253\u9020
p299
aV\u8054\u8d5b
p300
aV\u9999\u6e2f
p301
aV\u5efa\u7acb
p302
aV\u5730\u533a
p303
aV\u7559\u5b66\u751f
p304
aV\u9ad8\u6821
p305
aV\u663e\u5f97
p306
aV\u6d77\u5916
p307
aV\u5267\u60c5
p308
aV\u8ba1\u5212
p309
aV\u5bb6
p310
aV\u8d3a\u5c81
p311
aV\u4e00\u70b9
p312
aV\u8fbe
p313
aV\u578b\u57fa\u91d1
p314
aV\u53a8\u623f
p315
aV\u5f20
p316
aV\u914d\u7f6e
p317
aV\u8fd0\u52bf
p318
aV\u5b66\u4e60
p319
aV\u7ea6\u5408
p320
aV\u5b66\u9662
p321
aV\u79d2
p322
aV\u4e0a\u5348
p323
aV\u6b66\u5668
p324
aV\u76d8
p325
aV\u4eba\u6570
p326
aV\u80dc
p327
aV\u6c83\u5c14
p328
aV\u529f\u80fd
p329
aV\u5ba2\u961f
p330
aV\u857e\u4e1d
p331
aV\u4e00\u90e8
p332
aV\u533b\u751f
p333
aV\u5355\u4f4d
p334
aV\u533f\u540d
p335
aV\u8fde\u7eed
p336
aV\u7533\u8d2d
p337
aV\u62a5\u9053
p338
aV\u7cbe\u5f69
p339
aV\u6d3e\u51fa\u6240
p340
aV\u8bad\u7ec3
p341
aV\u4e0a\u534a\u5e74
p342
aV\u5403
p343
aV\u9b45\u529b
p344
aV\u4ebf\u7f8e\u5143
p345
aV\u7bee\u7f51
p346
aV\u4e9a\u76d8
p347
aV\u4e0b\u8f7d
p348
aV\u8d44\u91d1
p349
aV\u8fd9\u9879
p350
aV\u59bb\u5b50
p351
aV\u4e1a\u7ee9
p352
aV\u6539\u9769
p353
aV\u4e0b\u671f
p354
aV\u94f6\u884c
p355
aV\u65e5\u5143
p356
aV\u53d1\u5e03
p357
aV\u5c0f\u725b
p358
aV\u53cc\u5b50
p359
aV\u7bee\u677f
p360
aV\u901a\u8baf\u5458
p361
aV\u6295\u8d44
p362
aV\u516c\u91cc
p363
aV\u8d2d\u4e70
p364
aV\u5fc3
p365
aV\u516c\u5e03
p366
aV\u5ba2\u5385
p367
aV\u9057\u6f0f
p368
aV\u5360\u636e
p369
aV\u9b54\u7faf
p370
aV\u8d54
p371
aV\u84dd\u7403
p372
aV\u672c\u79d1
p373
aV\u9886\u5148
p374
aV\u7ecf\u6d4e\u5b66\u5bb6
p375
aV\u5360
p376
aV\u88c5\u626e
p377
aV\u5367\u5ba4
p378
aV\u534e\u590f
p379
aV\u6570\u636e
p380
aV\u7ea6\u4f1a
p381
aV\u8def
p382
aV\u5efa\u7b51
p383
aV\u6210\u4ea4\u91cf
p384
aV\u7a81\u7834
p385
aV\u5a5a\u59fb
p386
aV\u538b\u529b
p387
aV\u8bfb
p388
aV\u82f1\u8bed
p389
aV\u7f8e\u56fd\u5b87\u822a\u5c40
p390
aV\u9648\u6c34\u6241
p391
aV\u725b\u4ed4
p392
aV\u6f6e\u6d41
p393
aV\u5c06\u4f1a
p394
aV\u80e1\u9526\u6d9b
p395
aV\u4e16\u754c
p396
aV\u9884\u671f
p397
aV\u89c2\u6d4b
p398
aV\u670d\u9970
p399
aV\u4f5c\u54c1
p400
aV\u9632\u5b88
p401
aV\u8d1f
p402
aV\u5c01\u795e
p403
aV\u80a1\u5e02
p404
aV\u9970\u6f14
p405
aV\u653f\u7b56
p406
aV\u63a8\u8350
p407
aV\u6bd4\u8d5b
p408
aV\u7231
p409
aV\u89d2\u8272
p410
aV\u8212\u9002
p411
aV\u66b4\u96ea
p412
aV\u8272\u5f69
p413
aV\u53cc\u8272\u7403
p414
aV\u8d70\u52bf
p415
aV\u540d\u6821
p416
aV\u5f20\u827a\u8c0b
p417
aV\u627e\u5230
p418
aV\u6700\u7ec8
p419
aV\u91cc
p420
aV\u4e00\u79cd
p421
aV\u9b54\u672f
p422
aV\u5efa\u8bbe
p423
aV\u5f02\u6027
p424
aV\u7a7a\u95f4
p425
aV\u5957
p426
aV\u7ecf\u5178
p427
aV\u751c\u7f8e
p428
aV\u4f01\u4e1a
p429
aV\u5929\u79e4
p430
aV\u89c6\u9891
p431
aV\u5927\u5956
p432
aV\u5bfc\u6f14
p433
aV\u59dc\u6587
p434
aV\u4e5f\u8bb8
p435
aV\u51ef\u5c14\u7279\u4eba
p436
aV\u5434\u6dd1\u73cd
p437
aV\u9ad8\u4e2d
p438
aV\u53f0
p439
aV\u5185\u7ebf
p440
aV\u4eba\u5458
p441
aV\u7248\u672c
p442
aV\u4e1a\u4e3b
p443
aV\u4e2d\u65b9
p444
aV\u4f4f\u5b85
p445
aV\u7a7f\u7740
p446
aV\u663e\u793a
p447
aV\u4f11\u95f2
p448
aV\u6f14
p449
aV\u653b\u51fb
p450
aV\u4f20\u7edf
p451
aV\u65e5\u7535
p452
aV\u7403\u5458
p453
aV\u4e07\u5143
p454
aV\u72ee\u5b50
p455
aV\u8bbe\u8ba1
p456
aV\u771f\u7684
p457
aV\u8fdb
p458
aV\u6613\u5efa\u8054
p459
aV\u8dcc\u5e45
p460
aV\u7b80\u7ea6
p461
aV\u7ea7
p462
aV\u5730\u65b9
p463
aV\u7533\u8bf7
p464
aV\u70b9\u8bc4
p465
aV\u91d1\u725b\u5ea7
p466
aV\u5267\u7ec4
p467
aV\u4e0a\u6da8
p468
aV\u63a5\u53d7
p469
aV\u673a\u4f1a
p470
aV\u529f\u592b
p471
aV\u52a0\u62ff\u5927
p472
aV\u7247\u4e2d
p473
aV\u534a\u7403
p474
aV\u9762\u6599
p475
aV\u592e\u884c
p476
aV\u5546\u54c1\u623f
p477
aV\u798f\u5f69
p478
aV\u547d\u4e2d\u7387
p479
aV\u9910\u5385
p480
aV\u63a8\u51fa
p481
aV\u8dd1
p482
aV\u4e2d\u56fd
p483
aS'numOfNumbers'
p484
aV\u961f\u53cb
p485
aV\u73af\u4fdd
p486
aV\u79d1\u5b66
p487
aV\u8bc1\u5238
p488
aV\u8f6e
p489
aV\u7b2c\u56db\u8282
p490
aV\u7537\u4eba
p491
aV\u51af\u5c0f\u521a
p492
aV\u4e13\u4e1a
p493
aV\u8272\u8c03
p494
aV\u53c2\u52a0
p495
aV\u6f14\u5458
p496
aV\u8d44\u4ea7
p497
aV\u6052\u661f
p498
aV\u5973\u58eb
p499
aV\u65b0\u52a0\u5761
p500
aV\u623f
p501
aV\u4e00\u5e74
p502
aV\u82f1\u5bf8
p503
aV\u6bd4\u5206
p504
aV\u65f6\u5c1a
p505
aV\u767d\u7f8a
p506
aV\u5236\u4f5c
p507
aV\u7535\u8bdd
p508
aV\u52a9\u653b
p509
aV\u8bed\u8a00
p510
aV\u4e07\u79d1
p511
aV\u7f51\u6e38
p512
aV\u8868\u73b0
p513
aV\u5fc3\u7406
p514
aV\u620f
p515
aV\u5b66\u6821
p516
aV\u6210\u4ea4
p517
aV\u89c6\u89c9
p518
aV\u5c0f\u65f6
p519
aV\u9898\u6750
p520
aV\u51fa\u53f7
p521
aV\u91cd\u70b9
p522
aV\u72b6\u6001
p523
aV\u6df1\u5733
p524
aV\u56fd\u52a1\u9662
p525
aV\u989c\u8272
p526
aV\u7247
p527
aV\u5acc\u7591\u4eba
p528
aV\u7ba1\u7406
p529
aV\u673a\u6784
p530
aV\u5b89\u4e1c\u5c3c
p531
aV\u5168\u56fd
p532
aV\u56de\u5bb6
p533
aV\u9b54\u7faf\u5ea7
p534
aV\u6bd5\u4e1a\u751f
p535
aV\u4f53\u9a8c
p536
aV\u7a97\u5e18
p537
aV\u5973\u6027
p538
aV\u57fa\u91d1
p539
aV\u5e02\u573a
p540
aV\u91c7\u7528
p541
aV\u56f4\u5dfe
p542
aV\u8fde\u80dc
p543
aV\u53f0\u5317
p544
aV\u9879\u76ee
p545
aV\u80a1\u7968
p546
aV\u524d\u666f
p547
aV\u5f71\u9662
p548
aV\u8d76\u5230
p549
aV\u610f\u7532
p550
aV\u6750\u8d28
p551
aV\u6210\u7ee9
p552
aV\u5e73\u5747
p553
aV\u5bb6\u957f
p554
aV\u751f\u547d
p555
aV\u6cbb\u7597
p556
aV\u79d1\u6bd4
p557
aV\u5ba3\u4f20
p558
aV\u8bc4\u7ea7
p559
aV\u4e0a\u6d77
p560
aV\u7cfb\u7edf
p561
aV\u526f
p562
aV\u5927\u9646
p563
aV\u5927\u5e45
p564
aV\u4e00\u4ef6
p565
aV\u5f69\u7968
p566
aV\u5f00\u51fa
p567
aV\u4e8b\u4e1a
p568
aV\u8eab\u8fb9
p569
aV\u6280\u80fd
p570
aV\u4ea4\u6613
p571
aV\u7a7f
p572
aV\u5168\u573a
p573
aV\u9a6c\u82f1\u4e5d
p574
aV\u5bfc\u81f4
p575
aV\u623f\u5730\u4ea7
p576
aV\u62cd
p577
aV\u6545\u4e8b
p578
aV\u642d\u914d
p579
aV\u4e24\u540d
p580
aV\u4fe1\u606f
p581
aV\u79cb\u51ac
p582
aV\u4f4f\u623f
p583
aV\u5c3c\u514b\u65af
p584
aV\u7504\u5b50\u4e39
p585
aV\u6295
p586
aV\u6a21\u5f0f
p587
aV\u670b\u53cb
p588
aV\u6210\u672c
p589
aV\u7279\u4fa6\u7ec4
p590
aV\u79fb\u6c11
p591
aV\u7ea2\u7403
p592
aV\u6d88\u8d39\u8005
p593
aV\u51fa\u624b
p594
aV\u725b\u4ed4\u88e4
p595
aV\u5c45\u5ba4
p596
aV\u5143\u7d20
p597
aV\u5185\u8863
p598
aV\u5409\u65f6
p599
aV\u8d5b\u5b63
p600
aV\u5de5\u4f5c
p601
aV\u62ff\u4e0b
p602
aV\u70b9
p603
aV\u7b7e\u8bc1
p604
aV\u4e09\u5206
p605
aV\u5409\u65e5
p606
aV\u5168\u65b0
p607
aV\u8c03\u6574
p608
aV\u65e5\u672c
p609
aV\u573a\u666f
p610
aV\u5408\u4f5c
p611
aV\u5e94\u5bf9
p612
aV\u7814\u7a76
p613
aV\u500d
p614
aV\u7eff\u8272
p615
aV\u4e00\u4f4d
p616
aV\u90e8\u95e8
p617
aV\u98de\u884c
p618
aV\u7b54
p619
aV\u611f\u89c9
p620
aV\u6392\u540d
p621
aV\u88d9
p622
aV\u5267\u672c
p623
aV\u9488\u7ec7
p624
aV\u5e78\u798f
p625
aV\u653f\u6cbb
p626
aV\u62cd\u6444
p627
aV\u4e00\u6761
p628
aV\u8bb2\u8ff0
p629
aV\u76d8\u53e3
p630
aV\u91d1\u725b
p631
aV\u4ecb\u7ecd
p632
aV\u8fde\u8863\u88d9
p633
aV\u8857\u5934
p634
aV\u5929\u874e
p635
aV\u6b27\u6d32\u592e\u884c
p636
aV\u897f\u88c5
p637
aV\u53d1\u884c
p638
aV\u51c0\u503c
p639
aV\u544a\u8bc9
p640
aV\u6c34\u661f
p641
aV\u5899\u9762
p642
aV\u97e9\u56fd
p643
aV\u5236\u5ea6
p644
aV\u97e6\u5fb7
p645
aV\u7ec4\u7ec7
p646
aV\u5730\u7403
p647
aV\u7236\u4eb2
p648
aV\u6295\u7bee
p649
aV\u65f6\u95f4
p650
aV\u5e26\u6765
p651
aV\u6c11\u8b66
p652
aV\u706b\u7bad\u961f
p653
aV\u604b\u4eba
p654
aV\u5fb7\u56fd
p655
aV\u706b\u661f
p656
aV\u63a5\u5230
p657
aV\u6628\u65e5
p658
aV\u751f\u6d3b
p659
aV\u5de8\u87f9\u5ea7
p660
aV\u63d0\u9ad8
p661
aV\u6307\u51fa
p662
aV\u571f\u5730
p663
aV\u7ec4\u56fe
p664
aV\u79d1\u6280
p665
aV\u533a\u57df
p666
aV\u611f
p667
aV\u4e3b\u4eba
p668
aV\u672c\u573a
p669
aV\u80dc\u5229
p670
aV\u827a\u672f
p671
aV\u4eba\u7269
p672
aV\u6a71\u67dc
p673
aV\u9886\u57df
p674
aV\u5b9e\u9a8c
p675
aV\u4e24\u5cb8
p676
aV\u4eba\u624d
p677
aV\u53ec\u5524
p678
aV\u7269\u4e1a
p679
aV\u5bb6\u5c45
p680
aV\u6708\u4efd
p681
aV\u523a\u6fc0
p682
aV\u6c34\u5e73
p683
aV\u8ddd\u79bb
p684
aV\u5973
p685
aV\u6b27\u5143
p686
aV\u4f18\u52bf
p687
aV\u5b69\u5b50
p688
aV\u6218\u961f
p689
aV\u5c81
p690
aV\u6307\u5bfc
p691
aV\u4e8b
p692
aV\u623f\u95f4
p693
aV\u6211\u56fd
p694
aV\u8425\u9020
p695
aV\u4e00\u540d
p696
aV\u5e73\u65b9\u7c73
p697
aV\u5229\u7528
p698
aV\u6b7b\u4ea1
p699
aV\u8c03\u67e5
p700
aV\u6c14\u8d28
p701
aV\u624b\u673a
p702
aV\u623f\u5c4b
p703
aV\u770b\u597d
p704
aV\u7406\u8d22\u4ea7\u54c1
p705
aV\u5347\u7ea7
p706
aV\u73a9
p707
aV\u590d\u82cf
p708
aV\u5317\u4eac
p709
aV\u8fd1\u671f
p710
aV\u900f\u9732
p711
aV\u9009\u62e9
p712
aV\u623f\u4ef7
p713
aV\u751f\u4ea7
p714
aV\u5168\u7403
p715
aV\u672c\u8d5b\u5b63
p716
aV\u7b49\u7ea7
p717
aV\u6b3e
p718
aV\u540c\u5b66
p719
aV\u592a
p720
aV\u5546\u4e1a\u94f6\u884c
p721
aV\u9ed1\u8272
p722
aV\u7248
p723
aV\u9ad8\u8ddf\u978b
p724
aV\u7403\u961f
p725
aV\u82f1\u96c4
p726
aV\u51fa\u6f14
p727
aV\u73a9\u5bb6
p728
aV\u654c\u4eba
p729
aV\u653f\u5e9c
p730
aV\u6064
p731
aV\u8f66
p732
aV\u4e0a\u6620
p733
aV\u7f8e\u5143
p734
aV\u82f1\u56fd
p735
aV\u4eba\u6c11
p736
aV\u72ec\u5bb6
p737
aV\u8170\u5e26
p738
aV\u6295\u8d44\u8005
p739
aV\u82f1\u8d85
p740
aV\u8d27\u5e01\u653f\u7b56
p741
aV\u9a6c\u523a
p742
aV\u661f\u9645\u4e89\u9738
p743
aV\u98ce\u9669
p744
aV\u519c\u6751
p745
aV\u63d0\u51fa
p746
aV\u5e0c\u814a
p747
aV\u8d85\u8fc7
p748
aV\u5bbd\u677e
p749
aV\u89e3\u51b3
p750
aV\u6e29\u99a8
p751
aV\u9009\u624b
p752
aV\u5730\u9707
p753
aV\u6298
p754
aV\u6709\u9650\u516c\u53f8
p755
aV\u6751\u6c11
p756
aV\u4ef7\u683c
p757
aV\u6e38\u620f
p758
aV\u4e0a\u573a
p759
aV\u6fb3\u5927\u5229\u4e9a
p760
aV\u6027\u611f
p761
aV\u7ecf\u7406
p762
aV\u8a79\u59c6\u65af
p763
aV\u5934\u5956
p764
aV\u660e\u661f
p765
aV\u5ba2\u80dc
p766
aV\u516c\u53f8
p767
aV\u6253\u51fa
p768
aV\u9662\u6821
p769
aV\u5730\u5757
p770
aV\u6301\u6709
p771
aV\u542c\u6b4c
p772
aV\u592a\u9633
p773
aV\u7269\u8d28
p774
aV\u5f00\u53d1
p775
aV\u53cc\u9c7c\u5ea7
p776
aV\u4e07\u5e73\u65b9\u7c73
p777
aV\u4e3b\u5e2d
p778
aV\u5386\u53f2
p779
aV\u88c5\u4fee
p780
aV\u7ed3\u675f
p781
aV\u7231\u5c14\u5170
p782
aV\u62a5\u544a
p783
aV\u589e\u957f
p784
aV\u4e3b\u961f
p785
aV\u5730\u677f
p786
aV\u672c\u5468
p787
aV\u5218\u5fb7\u534e
p788
aV\u540c\u6bd4
p789
aV\u89c2\u4f17
p790
aV\u559c\u6b22
p791
aV\u6d88\u606f
p792
aV\u4ed3\u4f4d
p793
aV\u589e\u52a0
p794
aV\u4eba\u6c11\u5e01
p795
aV\u5a31\u4e50
p796
aV\u4f4d\u4e8e
p797
aV\u6587
p798
aV\u53d1\u73b0
p799
aV\u978b
p800
aV\u4e09\u5206\u7403
p801
aV\u901a\u80c0
p802
aV\u5bb6\u5ead
p803
aV\u96c5\u601d
p804
aV\u65f6\u8bb8
p805
aV\u4e2d\u5956
p806
aV\u8baf
p807
aV\u7ea2\u8272
p808
aV\u8bb0\u8005
p809
aV\u547d\u4e2d
p810
aV\u6708\u7403
p811
aV\u8bbe\u8ba1\u5e08
p812
aV\u5bfc\u8bed
p813
aV\u516c\u725b
p814
aV\u63a8\u8fdb
p815
aV\u793e\u4f1a
p816
aV\u8d22\u653f
p817
aV\u592a\u7a7a
p818
aV\u4e08\u592b
p819
aV\u8868\u6f14
p820
aV\u4e0b\u5348
p821
aV\u6301\u7eed
p822
aV\u6b64\u524d
p823
aV\u9884\u8ba1
p824
aV\u56fe\u6848
p825
aV\u5b58\u6b3e
p826
aV\u5973\u4eba
p827
aV\u884c\u4e1a
p828
aV\u901f\u5ea6
p829
aV\u5947\u8c2d
p830
aV\u6536\u76ca\u7387
p831
aV\u5de5\u4f5c\u4eba\u5458
p832
aV\u8d39\u7528
p833
aV\u4e24\u4e2a
p834
aV\u7ec4\u5408
p835
aV\u4eba\u58eb
p836
aV\u6293\u83b7
p837
aV\u7528\u6237
p838
aV\u4e00\u573a
p839
aV\u65b0\u7247
p840
aV\u6a21\u7279
p841
aV\u66ff\u8865
p842
aV\u6d3b\u52a8
p843
aV\u6cd5\u9662
p844
aV\u6c34\u74f6
p845
aV\u6863
p846
aV\u4e2d\u592e
p847
aV\u5730\u56fe
p848
aV\u4e1a\u52a1
p849
aV\u4e24\u961f
p850
aV\u697c\u5e02
p851
aV\u671b\u8fdc\u955c
p852
aV\u5956\u5b66\u91d1
p853
aV\u627e
p854
aV\u84dd\u8272
p855
aV\u673a\u5668\u4eba
p856
aV\u7a33\u5b9a
p857
aV\u79d1\u5b66\u5bb6
p858
aV\u72af\u89c4
p859
aV\u540d
p860
aV\u52a0\u606f
p861
aV\u6c47\u7387
p862
aV\u52a8\u7269
p863
aV\u76f8\u5173
p864
aV\u8003\u8bd5
p865
aV\u8fd9\u90e8
p866
aV\u7ea6
p867
aV\u963f\u8054
p868
aV\u642d
p869
aV\u697c\u76d8
p870
aV\u513f\u5b50
p871
aV\u4e3b\u6743
p872
aV\u559c\u5267
p873
aV\u6e56\u4eba\u961f
p874
aV\u7537
p875
aV\u60c5\u4eba
p876
aV\u5356\u573a
p877
aV\u793c\u670d
p878
aV\u7403\u8ff7
p879
aV\u6cd5\u56fd
p880
aV\u6587\u5316
p881
aV\u975e\u4e13\u4e1a
p882
aV\u5bf9\u8c61
p883
aV\u4e3b\u573a
p884
aV\u5973\u5b50
p885
aV\u65d7\u4e0b
p886
aV\u4f53\u80b2\u8baf
p887
aV\u652f\u6301
p888
aV\u8fd0
p889
aV\u6218\u7ee9
p890
aV\u4e24\u4eba
p891
aV\u8fdb\u4e00\u6b65
p892
aV\u5929\u79e4\u5ea7
p893
aV\u5e73\u5c40
p894
aV\u5f71\u54cd
p895
aV\u6765\u5230
p896
aV\u5747\u4ef7
p897
aV\u7ecf\u6d4e
p898
aV\u9635\u5bb9
p899
aV\u4ea4\u950b
p900
aV\u65b9\u5f0f
p901
aV\u60c5\u7eea
p902
aV\u8fdb\u653b
p903
aV\u9020\u578b
p904
aV\u70ed\u706b
p905
aV\u56fd\u9645
p906
aV\u5973\u5b69
p907
aV\u5f00\u53d1\u5546
p908
aV\u8bba\u575b
p909
aV\u884c\u661f
p910
aV\u8d54\u507f
p911
aV\u56fe
p912
aV\u804c\u4e1a
p913
aV\u817f
p914
a.